target datalayout = "e-m:e-p270:32:32-p271:32:32-p272:64:64-i64:64-i128:128-f80:128-n8:16:32:64-S128"
target triple = "x86_64-pc-linux-gnu"

%struct.GetBitContext = type { ptr, ptr, i32, i32, i32 }
%struct.Pulse = type { i32, i32, [4 x i32], [4 x i32] }

; Function Attrs: alwaysinline nounwind willreturn memory(none) uwtable
define internal i32 @av_bswap32(i32 noundef %0) #8 {
  %2 = alloca i32, align 4
  store i32 %0, ptr %2, align 4, !tbaa !11
  %3 = load i32, ptr %2, align 4, !tbaa !11
  %4 = shl i32 %3, 8
  %5 = and i32 %4, 65280
  %6 = load i32, ptr %2, align 4, !tbaa !11
  %7 = lshr i32 %6, 8
  %8 = and i32 %7, 255
  %9 = or i32 %5, %8
  %10 = shl i32 %9, 16
  %11 = load i32, ptr %2, align 4, !tbaa !11
  %12 = lshr i32 %11, 16
  %13 = shl i32 %12, 8
  %14 = and i32 %13, 65280
  %15 = load i32, ptr %2, align 4, !tbaa !11
  %16 = lshr i32 %15, 16
  %17 = lshr i32 %16, 8
  %18 = and i32 %17, 255
  %19 = or i32 %14, %18
  %20 = or i32 %10, %19
  ret i32 %20
}

; Function Attrs: inlinehint nounwind uwtable
define internal i32 @get_bits(ptr noundef %0, i32 noundef %1) #6 {
  %3 = alloca ptr, align 8
  %4 = alloca i32, align 4
  %5 = alloca i32, align 4
  %6 = alloca i32, align 4
  %7 = alloca i32, align 4
  %8 = alloca i32, align 4
  store ptr %0, ptr %3, align 8, !tbaa !111
  store i32 %1, ptr %4, align 4, !tbaa !11
  call void @llvm.lifetime.start.p0(i64 4, ptr %5) #12
  call void @llvm.lifetime.start.p0(i64 4, ptr %6) #12
  %9 = load ptr, ptr %3, align 8, !tbaa !111
  %10 = getelementptr inbounds nuw %struct.GetBitContext, ptr %9, i32 0, i32 2
  %11 = load i32, ptr %10, align 8, !tbaa !122
  store i32 %11, ptr %6, align 4, !tbaa !11
  call void @llvm.lifetime.start.p0(i64 4, ptr %7) #12
  call void @llvm.lifetime.start.p0(i64 4, ptr %8) #12
  %12 = load ptr, ptr %3, align 8, !tbaa !111
  %13 = getelementptr inbounds nuw %struct.GetBitContext, ptr %12, i32 0, i32 4
  %14 = load i32, ptr %13, align 8, !tbaa !124
  store i32 %14, ptr %8, align 4, !tbaa !11
  %15 = load ptr, ptr %3, align 8, !tbaa !111
  %16 = getelementptr inbounds nuw %struct.GetBitContext, ptr %15, i32 0, i32 0
  %17 = load ptr, ptr %16, align 8, !tbaa !125
  %18 = load i32, ptr %6, align 4, !tbaa !11
  %19 = lshr i32 %18, 3
  %20 = zext i32 %19 to i64
  %21 = getelementptr inbounds nuw i8, ptr %17, i64 %20
  %22 = load i32, ptr %21, align 1, !tbaa !32
  %23 = call i32 @av_bswap32(i32 noundef %22) #14
  %24 = load i32, ptr %6, align 4, !tbaa !11
  %25 = and i32 %24, 7
  %26 = shl i32 %23, %25
  %27 = lshr i32 %26, 0
  store i32 %27, ptr %7, align 4, !tbaa !11
  %28 = load i32, ptr %7, align 4, !tbaa !11
  %29 = load i32, ptr %4, align 4, !tbaa !11
  %30 = sub nsw i32 32, %29
  %31 = lshr i32 %28, %30
  store i32 %31, ptr %5, align 4, !tbaa !11
  %32 = load i32, ptr %8, align 4, !tbaa !11
  %33 = load i32, ptr %6, align 4, !tbaa !11
  %34 = load i32, ptr %4, align 4, !tbaa !11
  %35 = add i32 %33, %34
  %36 = icmp ugt i32 %32, %35
  br i1 %36, label %37, label %41

37:                                               ; preds = %2
  %38 = load i32, ptr %6, align 4, !tbaa !11
  %39 = load i32, ptr %4, align 4, !tbaa !11
  %40 = add i32 %38, %39
  br label %43

41:                                               ; preds = %2
  %42 = load i32, ptr %8, align 4, !tbaa !11
  br label %43

43:                                               ; preds = %41, %37
  %44 = phi i32 [ %40, %37 ], [ %42, %41 ]
  store i32 %44, ptr %6, align 4, !tbaa !11
  %45 = load i32, ptr %6, align 4, !tbaa !11
  %46 = load ptr, ptr %3, align 8, !tbaa !111
  %47 = getelementptr inbounds nuw %struct.GetBitContext, ptr %46, i32 0, i32 2
  store i32 %45, ptr %47, align 8, !tbaa !122
  %48 = load i32, ptr %5, align 4, !tbaa !11
  call void @llvm.lifetime.end.p0(i64 4, ptr %8) #12
  call void @llvm.lifetime.end.p0(i64 4, ptr %7) #12
  call void @llvm.lifetime.end.p0(i64 4, ptr %6) #12
  call void @llvm.lifetime.end.p0(i64 4, ptr %5) #12
  ret i32 %48
}

; Function Attrs: nounwind uwtable
define internal i32 @decode_pulses(ptr noundef %0, ptr noundef %1, ptr noundef %2, i32 noundef %3) #0 {
  %5 = alloca i32, align 4
  %6 = alloca ptr, align 8
  %7 = alloca ptr, align 8
  %8 = alloca ptr, align 8
  %9 = alloca i32, align 4
  %10 = alloca i32, align 4
  %11 = alloca i32, align 4
  %12 = alloca i32, align 4
  store ptr %0, ptr %6, align 8, !tbaa !156
  store ptr %1, ptr %7, align 8, !tbaa !111
  store ptr %2, ptr %8, align 8, !tbaa !145
  store i32 %3, ptr %9, align 4, !tbaa !11
  call void @llvm.lifetime.start.p0(i64 4, ptr %10) #12
  call void @llvm.lifetime.start.p0(i64 4, ptr %11) #12
  %13 = load ptr, ptr %7, align 8, !tbaa !111
  %14 = call i32 @get_bits(ptr noundef %13, i32 noundef 2)
  %15 = add i32 %14, 1
  %16 = load ptr, ptr %6, align 8, !tbaa !156
  %17 = getelementptr inbounds nuw %struct.Pulse, ptr %16, i32 0, i32 0
  store i32 %15, ptr %17, align 4, !tbaa !126
  %18 = load ptr, ptr %7, align 8, !tbaa !111
  %19 = call i32 @get_bits(ptr noundef %18, i32 noundef 6)
  store i32 %19, ptr %11, align 4, !tbaa !11
  %20 = load i32, ptr %11, align 4, !tbaa !11
  %21 = load i32, ptr %9, align 4, !tbaa !11
  %22 = icmp sge i32 %20, %21
  br i1 %22, label %23, label %24

23:                                               ; preds = %4
  store i32 -1, ptr %5, align 4
  store i32 1, ptr %12, align 4
  br label %107

24:                                               ; preds = %4
  %25 = load ptr, ptr %8, align 8, !tbaa !145
  %26 = load i32, ptr %11, align 4, !tbaa !11
  %27 = sext i32 %26 to i64
  %28 = getelementptr inbounds i16, ptr %25, i64 %27
  %29 = load i16, ptr %28, align 2, !tbaa !92
  %30 = zext i16 %29 to i32
  %31 = load ptr, ptr %6, align 8, !tbaa !156
  %32 = getelementptr inbounds nuw %struct.Pulse, ptr %31, i32 0, i32 2
  %33 = getelementptr inbounds [4 x i32], ptr %32, i64 0, i64 0
  store i32 %30, ptr %33, align 4, !tbaa !11
  %34 = load ptr, ptr %7, align 8, !tbaa !111
  %35 = call i32 @get_bits(ptr noundef %34, i32 noundef 5)
  %36 = load ptr, ptr %6, align 8, !tbaa !156
  %37 = getelementptr inbounds nuw %struct.Pulse, ptr %36, i32 0, i32 2
  %38 = getelementptr inbounds [4 x i32], ptr %37, i64 0, i64 0
  %39 = load i32, ptr %38, align 4, !tbaa !11
  %40 = add i32 %39, %35
  store i32 %40, ptr %38, align 4, !tbaa !11
  %41 = load ptr, ptr %6, align 8, !tbaa !156
  %42 = getelementptr inbounds nuw %struct.Pulse, ptr %41, i32 0, i32 2
  %43 = getelementptr inbounds [4 x i32], ptr %42, i64 0, i64 0
  %44 = load i32, ptr %43, align 4, !tbaa !11
  %45 = load ptr, ptr %8, align 8, !tbaa !145
  %46 = load i32, ptr %9, align 4, !tbaa !11
  %47 = sext i32 %46 to i64
  %48 = getelementptr inbounds i16, ptr %45, i64 %47
  %49 = load i16, ptr %48, align 2, !tbaa !92
  %50 = zext i16 %49 to i32
  %51 = icmp sge i32 %44, %50
  br i1 %51, label %52, label %53

52:                                               ; preds = %24
  store i32 -1, ptr %5, align 4
  store i32 1, ptr %12, align 4
  br label %107

53:                                               ; preds = %24
  %54 = load ptr, ptr %7, align 8, !tbaa !111
  %55 = call i32 @get_bits(ptr noundef %54, i32 noundef 4)
  %56 = load ptr, ptr %6, align 8, !tbaa !156
  %57 = getelementptr inbounds nuw %struct.Pulse, ptr %56, i32 0, i32 3
  %58 = getelementptr inbounds [4 x i32], ptr %57, i64 0, i64 0
  store i32 %55, ptr %58, align 4, !tbaa !11
  store i32 1, ptr %10, align 4, !tbaa !11
  br label %59

59:                                               ; preds = %103, %53
  %60 = load i32, ptr %10, align 4, !tbaa !11
  %61 = load ptr, ptr %6, align 8, !tbaa !156
  %62 = getelementptr inbounds nuw %struct.Pulse, ptr %61, i32 0, i32 0
  %63 = load i32, ptr %62, align 4, !tbaa !126
  %64 = icmp slt i32 %60, %63
  br i1 %64, label %65, label %106

65:                                               ; preds = %59
  %66 = load ptr, ptr %7, align 8, !tbaa !111
  %67 = call i32 @get_bits(ptr noundef %66, i32 noundef 5)
  %68 = load ptr, ptr %6, align 8, !tbaa !156
  %69 = getelementptr inbounds nuw %struct.Pulse, ptr %68, i32 0, i32 2
  %70 = load i32, ptr %10, align 4, !tbaa !11
  %71 = sub nsw i32 %70, 1
  %72 = sext i32 %71 to i64
  %73 = getelementptr inbounds [4 x i32], ptr %69, i64 0, i64 %72
  %74 = load i32, ptr %73, align 4, !tbaa !11
  %75 = add i32 %67, %74
  %76 = load ptr, ptr %6, align 8, !tbaa !156
  %77 = getelementptr inbounds nuw %struct.Pulse, ptr %76, i32 0, i32 2
  %78 = load i32, ptr %10, align 4, !tbaa !11
  %79 = sext i32 %78 to i64
  %80 = getelementptr inbounds [4 x i32], ptr %77, i64 0, i64 %79
  store i32 %75, ptr %80, align 4, !tbaa !11
  %81 = load ptr, ptr %6, align 8, !tbaa !156
  %82 = getelementptr inbounds nuw %struct.Pulse, ptr %81, i32 0, i32 2
  %83 = load i32, ptr %10, align 4, !tbaa !11
  %84 = sext i32 %83 to i64
  %85 = getelementptr inbounds [4 x i32], ptr %82, i64 0, i64 %84
  %86 = load i32, ptr %85, align 4, !tbaa !11
  %87 = load ptr, ptr %8, align 8, !tbaa !145
  %88 = load i32, ptr %9, align 4, !tbaa !11
  %89 = sext i32 %88 to i64
  %90 = getelementptr inbounds i16, ptr %87, i64 %89
  %91 = load i16, ptr %90, align 2, !tbaa !92
  %92 = zext i16 %91 to i32
  %93 = icmp sge i32 %86, %92
  br i1 %93, label %94, label %95

94:                                               ; preds = %65
  store i32 -1, ptr %5, align 4
  store i32 1, ptr %12, align 4
  br label %107

95:                                               ; preds = %65
  %96 = load ptr, ptr %7, align 8, !tbaa !111
  %97 = call i32 @get_bits(ptr noundef %96, i32 noundef 4)
  %98 = load ptr, ptr %6, align 8, !tbaa !156
  %99 = getelementptr inbounds nuw %struct.Pulse, ptr %98, i32 0, i32 3
  %100 = load i32, ptr %10, align 4, !tbaa !11
  %101 = sext i32 %100 to i64
  %102 = getelementptr inbounds [4 x i32], ptr %99, i64 0, i64 %101
  store i32 %97, ptr %102, align 4, !tbaa !11
  br label %103

103:                                              ; preds = %95
  %104 = load i32, ptr %10, align 4, !tbaa !11
  %105 = add nsw i32 %104, 1
  store i32 %105, ptr %10, align 4, !tbaa !11
  br label %59, !llvm.loop !158

106:                                              ; preds = %59
  store i32 0, ptr %5, align 4
  store i32 1, ptr %12, align 4
  br label %107

107:                                              ; preds = %106, %94, %52, %23
  call void @llvm.lifetime.end.p0(i64 4, ptr %11) #12
  call void @llvm.lifetime.end.p0(i64 4, ptr %10) #12
  %108 = load i32, ptr %5, align 4
  ret i32 %108
}