; Function Attrs: nofree norecurse nosync nounwind memory(read, argmem: readwrite, inaccessiblemem: none) uwtable
define internal fastcc range(i32 -1, 1) i32 @decode_pulses(ptr noundef nonnull captures(none) initializes((0, 4)) %0, ptr noundef captures(none) %1, ptr noundef readonly captures(none) %2, i32 noundef %3) unnamed_addr #7 {
  %5 = getelementptr inbounds nuw i8, ptr %1, i64 16
  %6 = load i32, ptr %5, align 8, !tbaa !105
  %7 = getelementptr inbounds nuw i8, ptr %1, i64 24
  %8 = load i32, ptr %7, align 8, !tbaa !103
  %9 = load ptr, ptr %1, align 8, !tbaa !100
  %10 = lshr i32 %6, 3
  %11 = zext nneg i32 %10 to i64
  %12 = getelementptr inbounds nuw i8, ptr %9, i64 %11
  %13 = load i32, ptr %12, align 1, !tbaa !27
  %14 = tail call i32 @llvm.bswap.i32(i32 %13)
  %15 = and i32 %6, 7
  %16 = shl i32 %14, %15
  %17 = lshr i32 %16, 30
  %18 = add i32 %6, 2
  %19 = tail call i32 @llvm.umin.i32(i32 %8, i32 %18)
  store i32 %19, ptr %5, align 8, !tbaa !105
  %20 = add nuw nsw i32 %17, 1
  store i32 %20, ptr %0, align 4, !tbaa !117
  %21 = lshr i32 %19, 3
  %22 = zext nneg i32 %21 to i64
  %23 = getelementptr inbounds nuw i8, ptr %9, i64 %22
  %24 = load i32, ptr %23, align 1, !tbaa !27
  %25 = tail call i32 @llvm.bswap.i32(i32 %24)
  %26 = and i32 %19, 7
  %27 = shl i32 %25, %26
  %28 = lshr i32 %27, 26
  %29 = add i32 %19, 6
  %30 = tail call i32 @llvm.umin.i32(i32 %8, i32 %29)
  store i32 %30, ptr %5, align 8, !tbaa !105
  %.not = icmp slt i32 %28, %3
  br i1 %.not, label %31, label %.loopexit

31:                                               ; preds = %4
  %32 = zext nneg i32 %28 to i64
  %33 = getelementptr inbounds nuw i16, ptr %2, i64 %32
  %34 = load i16, ptr %33, align 2, !tbaa !32
  %35 = zext i16 %34 to i32
  %36 = getelementptr inbounds nuw i8, ptr %0, i64 8
  store i32 %35, ptr %36, align 4, !tbaa !17
  %37 = load i32, ptr %5, align 8, !tbaa !105
  %38 = load i32, ptr %7, align 8, !tbaa !103
  %39 = lshr i32 %37, 3
  %40 = zext nneg i32 %39 to i64
  %41 = getelementptr inbounds nuw i8, ptr %9, i64 %40
  %42 = load i32, ptr %41, align 1, !tbaa !27
  %43 = tail call i32 @llvm.bswap.i32(i32 %42)
  %44 = and i32 %37, 7
  %45 = shl i32 %43, %44
  %46 = lshr i32 %45, 27
  %47 = add i32 %37, 5
  %48 = tail call i32 @llvm.umin.i32(i32 %38, i32 %47)
  store i32 %48, ptr %5, align 8, !tbaa !105
  %49 = load i32, ptr %36, align 4, !tbaa !17
  %50 = add i32 %46, %49
  store i32 %50, ptr %36, align 4, !tbaa !17
  %51 = zext nneg i32 %3 to i64
  %52 = getelementptr inbounds nuw i16, ptr %2, i64 %51
  %53 = load i16, ptr %52, align 2, !tbaa !32
  %54 = zext i16 %53 to i32
  %.not33 = icmp slt i32 %50, %54
  br i1 %.not33, label %55, label %.loopexit

55:                                               ; preds = %31
  %56 = load i32, ptr %5, align 8, !tbaa !105
  %57 = load i32, ptr %7, align 8, !tbaa !103
  %58 = lshr i32 %56, 3
  %59 = zext nneg i32 %58 to i64
  %60 = getelementptr inbounds nuw i8, ptr %9, i64 %59
  %61 = load i32, ptr %60, align 1, !tbaa !27
  %62 = tail call i32 @llvm.bswap.i32(i32 %61)
  %63 = and i32 %56, 7
  %64 = shl i32 %62, %63
  %65 = lshr i32 %64, 28
  %66 = add i32 %56, 4
  %67 = tail call i32 @llvm.umin.i32(i32 %57, i32 %66)
  store i32 %67, ptr %5, align 8, !tbaa !105
  %68 = getelementptr inbounds nuw i8, ptr %0, i64 24
  store i32 %65, ptr %68, align 4, !tbaa !17
  %.not3536 = icmp ult i32 %16, 1073741824
  br i1 %.not3536, label %.loopexit, label %.lr.ph.preheader

.lr.ph.preheader:                                 ; preds = %55
  %wide.trip.count = zext nneg i32 %20 to i64
  br label %.lr.ph

.lr.ph:                                           ; preds = %.lr.ph.preheader, %86
  %indvars.iv = phi i64 [ 1, %.lr.ph.preheader ], [ %indvars.iv.next, %86 ]
  %69 = load i32, ptr %5, align 8, !tbaa !105
  %70 = load i32, ptr %7, align 8, !tbaa !103
  %71 = lshr i32 %69, 3
  %72 = zext nneg i32 %71 to i64
  %73 = getelementptr inbounds nuw i8, ptr %9, i64 %72
  %74 = load i32, ptr %73, align 1, !tbaa !27
  %75 = tail call i32 @llvm.bswap.i32(i32 %74)
  %76 = and i32 %69, 7
  %77 = shl i32 %75, %76
  %78 = lshr i32 %77, 27
  %79 = add i32 %69, 5
  %80 = tail call i32 @llvm.umin.i32(i32 %70, i32 %79)
  store i32 %80, ptr %5, align 8, !tbaa !105
  %81 = add nsw i64 %indvars.iv, -1
  %82 = getelementptr inbounds [4 x i32], ptr %36, i64 0, i64 %81
  %83 = load i32, ptr %82, align 4, !tbaa !17
  %84 = add i32 %78, %83
  %85 = getelementptr inbounds nuw [4 x i32], ptr %36, i64 0, i64 %indvars.iv
  store i32 %84, ptr %85, align 4, !tbaa !17
  %.not34 = icmp slt i32 %84, %54
  br i1 %.not34, label %86, label %.loopexit

86:                                               ; preds = %.lr.ph
  %87 = load i32, ptr %5, align 8, !tbaa !105
  %88 = load i32, ptr %7, align 8, !tbaa !103
  %89 = lshr i32 %87, 3
  %90 = zext nneg i32 %89 to i64
  %91 = getelementptr inbounds nuw i8, ptr %9, i64 %90
  %92 = load i32, ptr %91, align 1, !tbaa !27
  %93 = tail call i32 @llvm.bswap.i32(i32 %92)
  %94 = and i32 %87, 7
  %95 = shl i32 %93, %94
  %96 = lshr i32 %95, 28
  %97 = add i32 %87, 4
  %98 = tail call i32 @llvm.umin.i32(i32 %88, i32 %97)
  store i32 %98, ptr %5, align 8, !tbaa !105
  %99 = getelementptr inbounds nuw [4 x i32], ptr %68, i64 0, i64 %indvars.iv
  store i32 %96, ptr %99, align 4, !tbaa !17
  %indvars.iv.next = add nuw nsw i64 %indvars.iv, 1
  %exitcond.not = icmp eq i64 %indvars.iv.next, %wide.trip.count
  br i1 %exitcond.not, label %.loopexit, label %.lr.ph, !llvm.loop !149

.loopexit:                                        ; preds = %.lr.ph, %86, %55, %31, %4
  %.0 = phi i32 [ -1, %4 ], [ -1, %31 ], [ 0, %55 ], [ -1, %.lr.ph ], [ 0, %86 ]
  ret i32 %.0
}